	.text
	.file	"Test.c"
	.globl	main                            # -- Begin function main
	.p2align	4, 0x90
	.type	main,@function
main:                                   # @main
.Lfunc_begin0:
	.file	1 "/home/amr/AM/ClangLib" "Test.c"
	.loc	1 11 0                          # Test.c:11:0
	.cfi_startproc
# %bb.0:
	pushq	%rbx
	.cfi_def_cfa_offset 16
	subq	$96, %rsp
	.cfi_def_cfa_offset 112
	.cfi_offset %rbx, -16
	.loc	1 13 15 prologue_end            # Test.c:13:15
	callq	clock@PLT
.Ltmp0:
	#DEBUG_VALUE: main:t1 <- $rax
	.loc	1 15 14                         # Test.c:15:14
	leaq	.L.str(%rip), %rsi
	leaq	48(%rsp), %rdi
	callq	read_file_to_string@PLT
.Ltmp1:
	.loc	1 17 29                         # Test.c:17:29
	leaq	72(%rsp), %rbx
	.loc	1 17 17 is_stmt 0               # Test.c:17:17
	movq	88(%rsp), %rax
	movq	%rax, 16(%rsp)
	vmovups	72(%rsp), %xmm0
	vmovups	%xmm0, (%rsp)
	callq	Str_split@PLT
.Ltmp2:
	#DEBUG_VALUE: main:alis <- [DW_OP_LLVM_fragment 0 64] $rax
	#DEBUG_VALUE: main:alis <- [DW_OP_LLVM_fragment 64 64] $rdx
	.loc	1 21 5 is_stmt 1                # Test.c:21:5
	movq	%rax, %rdi
	movq	%rdx, %rsi
	callq	printLIST@PLT
.Ltmp3:
	.loc	1 22 5                          # Test.c:22:5
	movq	88(%rsp), %rax
	movq	%rax, 16(%rsp)
	vmovups	72(%rsp), %xmm0
	vmovups	%xmm0, (%rsp)
	callq	printString@PLT
.Ltmp4:
	.loc	1 25 5                          # Test.c:25:5
	leaq	.L.str.1(%rip), %rsi
	movq	%rbx, %rdi
	callq	Str_cat@PLT
.Ltmp5:
	.loc	1 27 5                          # Test.c:27:5
	movq	88(%rsp), %rax
	movq	%rax, 16(%rsp)
	vmovups	72(%rsp), %xmm0
	vmovups	%xmm0, (%rsp)
	callq	printString@PLT
.Ltmp6:
	.loc	1 31 5                          # Test.c:31:5
	vmovups	48(%rsp), %ymm0
	vmovups	64(%rsp), %ymm1
	vmovups	%ymm1, 16(%rsp)
	vmovups	%ymm0, (%rsp)
	vzeroupper
	callq	close_file@PLT
.Ltmp7:
	.loc	1 50 5                          # Test.c:50:5
	xorl	%eax, %eax
	callq	Str_free_all@PLT
.Ltmp8:
	.loc	1 76 1                          # Test.c:76:1
	xorl	%eax, %eax
	addq	$96, %rsp
	.cfi_def_cfa_offset 16
	popq	%rbx
	.cfi_def_cfa_offset 8
	retq
.Ltmp9:
.Lfunc_end0:
	.size	main, .Lfunc_end0-main
	.cfi_endproc
	.file	2 "/opt/zig-linux-x86_64-dev/lib/libc/include/generic-glibc" "time.h"
	.file	3 "/opt/zig-linux-x86_64-dev/lib/libc/include/generic-glibc/bits" "types.h"
	.file	4 "/opt/zig-linux-x86_64-dev/lib/libc/include/generic-glibc/bits/types" "clock_t.h"
	.file	5 "/home/amr/AM/ClangLib" "./file_handle.h"
	.file	6 "/opt/zig-linux-x86_64-dev/lib/include" "stddef.h"
	.file	7 "/opt/zig-linux-x86_64-dev/lib/libc/include/generic-glibc/bits/types" "struct_FILE.h"
	.file	8 "/opt/zig-linux-x86_64-dev/lib/libc/include/generic-glibc/bits/types" "FILE.h"
	.file	9 "/home/amr/AM/ClangLib" "./LibTypes.h"
	.file	10 "/home/amr/AM/ClangLib" "./LibStr.h"
                                        # -- End function
	.type	.L.str,@object                  # @.str
	.section	.rodata.str1.1,"aMS",@progbits,1
.L.str:
	.asciz	"./text_file.txt"
	.size	.L.str, 16

	.type	.L.str.1,@object                # @.str.1
.L.str.1:
	.asciz	" Assembly"
	.size	.L.str.1, 10

	.section	".note.GNU-stack","",@progbits
	.addrsig